target datalayout = "e-m:e-p270:32:32-p271:32:32-p272:64:64-i64:64-i128:128-f80:128-n8:16:32:64-S128"
target triple = "x86_64-pc-linux-gnu"

%struct.JSValue = type { %union.JSValueUnion, i64 }
%union.JSValueUnion = type { double }

; Function Attrs: nounwind uwtable
define internal i64 @js_get_errno(i64 noundef %0) #0 {
  %2 = alloca i64, align 8
  store i64 %0, ptr %2, align 8
  %3 = load i64, ptr %2, align 8
  %4 = icmp eq i64 %3, -1
  br i1 %4, label %5, label %10

5:                                                ; preds = %1
  %6 = call ptr @__errno_location() #10
  %7 = load i32, ptr %6, align 4
  %8 = sub i32 0, %7
  %9 = sext i32 %8 to i64
  store i64 %9, ptr %2, align 8
  br label %10

10:                                               ; preds = %5, %1
  %11 = load i64, ptr %2, align 8
  ret i64 %11
}

; Function Attrs: nounwind uwtable
define internal ptr @JS_ToCString(ptr noundef %0, i64 %1, i64 %2) #0 {
  %4 = alloca %struct.JSValue, align 8
  %5 = alloca ptr, align 8
  %6 = getelementptr inbounds { i64, i64 }, ptr %4, i32 0, i32 0
  store i64 %1, ptr %6, align 8
  %7 = getelementptr inbounds { i64, i64 }, ptr %4, i32 0, i32 1
  store i64 %2, ptr %7, align 8
  store ptr %0, ptr %5, align 8
  %8 = load ptr, ptr %5, align 8
  %9 = getelementptr inbounds { i64, i64 }, ptr %4, i32 0, i32 0
  %10 = load i64, ptr %9, align 8
  %11 = getelementptr inbounds { i64, i64 }, ptr %4, i32 0, i32 1
  %12 = load i64, ptr %11, align 8
  %13 = call ptr @JS_ToCStringLen2(ptr noundef %8, ptr noundef null, i64 %10, i64 %12, i32 noundef 0)
  ret ptr %13
}

; Function Attrs: nounwind uwtable
define internal { i64, i64 } @js_os_mkdir(ptr noundef %0, i64 %1, i64 %2, i32 noundef %3, ptr noundef %4) #0 {
  %6 = alloca %struct.JSValue, align 8
  %7 = alloca ptr, align 8
  %8 = alloca i32, align 4
  %9 = alloca %struct.JSValue, align 8
  %10 = alloca %struct.JSValue, align 8
  %11 = alloca ptr, align 8
  %12 = alloca i32, align 4
  %13 = alloca ptr, align 8
  %14 = alloca i32, align 4
  %15 = alloca i32, align 4
  %16 = alloca ptr, align 8
  %17 = getelementptr inbounds { i64, i64 }, ptr %10, i32 0, i32 0
  store i64 %1, ptr %17, align 8
  %18 = getelementptr inbounds { i64, i64 }, ptr %10, i32 0, i32 1
  store i64 %2, ptr %18, align 8
  store ptr %0, ptr %11, align 8
  store i32 %3, ptr %12, align 4
  store ptr %4, ptr %13, align 8
  %19 = load i32, ptr %12, align 4
  %20 = icmp sge i32 %19, 2
  br i1 %20, label %21, label %35

21:                                               ; preds = %5
  %22 = load ptr, ptr %11, align 8
  %23 = load ptr, ptr %13, align 8
  %24 = getelementptr %struct.JSValue, ptr %23, i64 1
  %25 = getelementptr inbounds { i64, i64 }, ptr %24, i32 0, i32 0
  %26 = load i64, ptr %25, align 8
  %27 = getelementptr inbounds { i64, i64 }, ptr %24, i32 0, i32 1
  %28 = load i64, ptr %27, align 8
  %29 = call i32 @JS_ToInt32(ptr noundef %22, ptr noundef %14, i64 %26, i64 %28)
  %30 = icmp ne i32 %29, 0
  br i1 %30, label %31, label %34

31:                                               ; preds = %21
  %32 = getelementptr inbounds %struct.JSValue, ptr %9, i32 0, i32 0
  store i32 0, ptr %32, align 8
  %33 = getelementptr inbounds %struct.JSValue, ptr %9, i32 0, i32 1
  store i64 6, ptr %33, align 8
  br label %68

34:                                               ; preds = %21
  br label %36

35:                                               ; preds = %5
  store i32 511, ptr %14, align 4
  br label %36

36:                                               ; preds = %35, %34
  %37 = load ptr, ptr %11, align 8
  %38 = load ptr, ptr %13, align 8
  %39 = getelementptr %struct.JSValue, ptr %38, i64 0
  %40 = getelementptr inbounds { i64, i64 }, ptr %39, i32 0, i32 0
  %41 = load i64, ptr %40, align 8
  %42 = getelementptr inbounds { i64, i64 }, ptr %39, i32 0, i32 1
  %43 = load i64, ptr %42, align 8
  %44 = call ptr @JS_ToCString(ptr noundef %37, i64 %41, i64 %43)
  store ptr %44, ptr %16, align 8
  %45 = load ptr, ptr %16, align 8
  %46 = icmp ne ptr %45, null
  br i1 %46, label %50, label %47

47:                                               ; preds = %36
  %48 = getelementptr inbounds %struct.JSValue, ptr %9, i32 0, i32 0
  store i32 0, ptr %48, align 8
  %49 = getelementptr inbounds %struct.JSValue, ptr %9, i32 0, i32 1
  store i64 6, ptr %49, align 8
  br label %68

50:                                               ; preds = %36
  %51 = load ptr, ptr %16, align 8
  %52 = load i32, ptr %14, align 4
  %53 = call i32 @mkdir(ptr noundef %51, i32 noundef %52) #12
  %54 = sext i32 %53 to i64
  %55 = call i64 @js_get_errno(i64 noundef %54)
  %56 = trunc i64 %55 to i32
  store i32 %56, ptr %15, align 4
  %57 = load ptr, ptr %11, align 8
  %58 = load ptr, ptr %16, align 8
  call void @JS_FreeCString(ptr noundef %57, ptr noundef %58)
  %59 = load ptr, ptr %11, align 8
  %60 = load i32, ptr %15, align 4
  store ptr %59, ptr %7, align 8
  store i32 %60, ptr %8, align 4
  %61 = load i32, ptr %8, align 4
  store i32 %61, ptr %6, align 8
  %62 = getelementptr inbounds %struct.JSValue, ptr %6, i32 0, i32 1
  store i64 0, ptr %62, align 8
  %63 = load { i64, i64 }, ptr %6, align 8
  %64 = getelementptr inbounds { i64, i64 }, ptr %9, i32 0, i32 0
  %65 = extractvalue { i64, i64 } %63, 0
  store i64 %65, ptr %64, align 8
  %66 = getelementptr inbounds { i64, i64 }, ptr %9, i32 0, i32 1
  %67 = extractvalue { i64, i64 } %63, 1
  store i64 %67, ptr %66, align 8
  br label %68

68:                                               ; preds = %50, %47, %31
  %69 = load { i64, i64 }, ptr %9, align 8
  ret { i64, i64 } %69
}