; Function Attrs: nounwind uwtable
define internal { i64, i64 } @js_os_mkdir(ptr noundef %0, i64 %1, i64 %2, i32 noundef %3, ptr nocapture noundef readonly %4) #0 {
  %6 = alloca i32, align 4
  %7 = icmp sgt i32 %3, 1
  br i1 %7, label %8, label %14

8:                                                ; preds = %5
  %9 = getelementptr i8, ptr %4, i64 16
  %10 = load i64, ptr %9, align 8
  %11 = getelementptr i8, ptr %4, i64 24
  %12 = load i64, ptr %11, align 8
  %13 = call i32 @JS_ToInt32(ptr noundef %0, ptr noundef nonnull %6, i64 %10, i64 %12) #29
  %.not = icmp eq i32 %13, 0
  br i1 %.not, label %15, label %28

14:                                               ; preds = %5
  store i32 511, ptr %6, align 4
  br label %15

15:                                               ; preds = %8, %14
  %16 = load i64, ptr %4, align 8
  %17 = getelementptr inbounds i8, ptr %4, i64 8
  %18 = load i64, ptr %17, align 8
  %19 = call ptr @JS_ToCStringLen2(ptr noundef %0, ptr noundef null, i64 %16, i64 %18, i32 noundef 0) #29
  %.not17 = icmp eq ptr %19, null
  br i1 %.not17, label %28, label %20

20:                                               ; preds = %15
  %21 = load i32, ptr %6, align 4
  %22 = call i32 @mkdir(ptr noundef nonnull %19, i32 noundef %21) #29
  %23 = icmp eq i32 %22, -1
  br i1 %23, label %24, label %js_get_errno.exit

24:                                               ; preds = %20
  %25 = tail call ptr @__errno_location() #28
  %26 = load i32, ptr %25, align 4
  %27 = sub i32 0, %26
  br label %js_get_errno.exit

js_get_errno.exit:                                ; preds = %20, %24
  %.0.i.in = phi i32 [ %27, %24 ], [ %22, %20 ]
  %.0.i = zext i32 %.0.i.in to i64
  call void @JS_FreeCString(ptr noundef %0, ptr noundef nonnull %19) #29
  br label %28

28:                                               ; preds = %15, %8, %js_get_errno.exit
  %.sroa.010.0 = phi i64 [ %.0.i, %js_get_errno.exit ], [ 0, %8 ], [ 0, %15 ]
  %.sroa.4.sroa.2.0 = phi i64 [ 0, %js_get_errno.exit ], [ 6, %8 ], [ 6, %15 ]
  %.fca.0.insert = insertvalue { i64, i64 } poison, i64 %.sroa.010.0, 0
  %.fca.1.insert = insertvalue { i64, i64 } %.fca.0.insert, i64 %.sroa.4.sroa.2.0, 1
  ret { i64, i64 } %.fca.1.insert
}